target datalayout = "e-m:e-p270:32:32-p271:32:32-p272:64:64-i64:64-i128:128-f80:128-n8:16:32:64-S128"
target triple = "x86_64-pc-linux-gnu"

%struct.oid_array = type { ptr, i64, i64, i32 }
%struct.object_id = type { [32 x i8], i32 }

@the_repository = external global ptr, align 8
@.str.144 = private unnamed_addr constant [15 x i8] c"builtin/pull.c\00", align 1

; Function Attrs: nounwind uwtable
define internal i32 @already_up_to_date(ptr noundef %0, ptr noundef %1) #0 {
  %3 = alloca i32, align 4
  %4 = alloca ptr, align 8
  %5 = alloca ptr, align 8
  %6 = alloca ptr, align 8
  %7 = alloca i64, align 8
  %8 = alloca i32, align 4
  %9 = alloca ptr, align 8
  %10 = alloca ptr, align 8
  %11 = alloca i32, align 4
  store ptr %0, ptr %4, align 8, !tbaa !59
  store ptr %1, ptr %5, align 8, !tbaa !66
  call void @llvm.lifetime.start.p0(i64 8, ptr %6) #11
  %12 = load ptr, ptr @the_repository, align 8, !tbaa !13
  %13 = load ptr, ptr %4, align 8, !tbaa !59
  %14 = call ptr @lookup_commit_reference(ptr noundef %12, ptr noundef %13)
  store ptr %14, ptr %6, align 8, !tbaa !74
  call void @llvm.lifetime.start.p0(i64 8, ptr %7) #11
  store i64 0, ptr %7, align 8, !tbaa !80
  br label %15

15:                                               ; preds = %49, %2
  %16 = load i64, ptr %7, align 8, !tbaa !80
  %17 = load ptr, ptr %5, align 8, !tbaa !66
  %18 = getelementptr inbounds nuw %struct.oid_array, ptr %17, i32 0, i32 1
  %19 = load i64, ptr %18, align 8, !tbaa !37
  %20 = icmp ult i64 %16, %19
  br i1 %20, label %22, label %21

21:                                               ; preds = %15
  store i32 2, ptr %8, align 4
  br label %52

22:                                               ; preds = %15
  call void @llvm.lifetime.start.p0(i64 8, ptr %9) #11
  store ptr null, ptr %9, align 8, !tbaa !78
  call void @llvm.lifetime.start.p0(i64 8, ptr %10) #11
  call void @llvm.lifetime.start.p0(i64 4, ptr %11) #11
  %23 = load ptr, ptr @the_repository, align 8, !tbaa !13
  %24 = load ptr, ptr %5, align 8, !tbaa !66
  %25 = getelementptr inbounds nuw %struct.oid_array, ptr %24, i32 0, i32 0
  %26 = load ptr, ptr %25, align 8, !tbaa !40
  %27 = load i64, ptr %7, align 8, !tbaa !80
  %28 = getelementptr inbounds nuw %struct.object_id, ptr %26, i64 %27
  %29 = call ptr @lookup_commit_reference(ptr noundef %23, ptr noundef %28)
  store ptr %29, ptr %10, align 8, !tbaa !74
  %30 = load ptr, ptr %10, align 8, !tbaa !74
  %31 = call ptr @commit_list_insert(ptr noundef %30, ptr noundef %9)
  %32 = load ptr, ptr @the_repository, align 8, !tbaa !13
  %33 = load ptr, ptr %6, align 8, !tbaa !74
  %34 = load ptr, ptr %9, align 8, !tbaa !78
  %35 = call i32 @repo_is_descendant_of(ptr noundef %32, ptr noundef %33, ptr noundef %34)
  store i32 %35, ptr %11, align 4, !tbaa !4
  %36 = load ptr, ptr %9, align 8, !tbaa !78
  call void @free_commit_list(ptr noundef %36)
  %37 = load i32, ptr %11, align 4, !tbaa !4
  %38 = icmp slt i32 %37, 0
  br i1 %38, label %39, label %41

39:                                               ; preds = %22
  %40 = call i32 @common_exit(ptr noundef @.str.144, i32 noundef 958, i32 noundef 128)
  call void @exit(i32 noundef %40) #14
  unreachable

41:                                               ; preds = %22
  %42 = load i32, ptr %11, align 4, !tbaa !4
  %43 = icmp ne i32 %42, 0
  br i1 %43, label %45, label %44

44:                                               ; preds = %41
  store i32 0, ptr %3, align 4
  store i32 1, ptr %8, align 4
  br label %46

45:                                               ; preds = %41
  store i32 0, ptr %8, align 4
  br label %46

46:                                               ; preds = %45, %44
  call void @llvm.lifetime.end.p0(i64 4, ptr %11) #11
  call void @llvm.lifetime.end.p0(i64 8, ptr %10) #11
  call void @llvm.lifetime.end.p0(i64 8, ptr %9) #11
  %47 = load i32, ptr %8, align 4
  switch i32 %47, label %52 [
    i32 0, label %48
  ]

48:                                               ; preds = %46
  br label %49

49:                                               ; preds = %48
  %50 = load i64, ptr %7, align 8, !tbaa !80
  %51 = add i64 %50, 1
  store i64 %51, ptr %7, align 8, !tbaa !80
  br label %15, !llvm.loop !81

52:                                               ; preds = %46, %21
  call void @llvm.lifetime.end.p0(i64 8, ptr %7) #11
  %53 = load i32, ptr %8, align 4
  switch i32 %53, label %55 [
    i32 2, label %54
  ]

54:                                               ; preds = %52
  store i32 1, ptr %3, align 4
  store i32 1, ptr %8, align 4
  br label %55

55:                                               ; preds = %54, %52
  call void @llvm.lifetime.end.p0(i64 8, ptr %6) #11
  %56 = load i32, ptr %3, align 4
  ret i32 %56
}