; Function Attrs: nounwind uwtable
define internal fastcc range(i32 0, 2) i32 @already_up_to_date(ptr noundef nonnull %0, ptr noundef nonnull readonly captures(none) %1) unnamed_addr #0 {
  %3 = alloca ptr, align 8
  %4 = load ptr, ptr @the_repository, align 8, !tbaa !17
  %5 = tail call ptr @lookup_commit_reference(ptr noundef %4, ptr noundef nonnull %0) #17
  %6 = getelementptr inbounds nuw i8, ptr %1, i64 8
  %7 = load i64, ptr %6, align 8, !tbaa !66
  %.not18 = icmp eq i64 %7, 0
  br i1 %.not18, label %._crit_edge, label %.lr.ph

8:                                                ; preds = %23
  %9 = add nuw i64 %.01319, 1
  %10 = load i64, ptr %6, align 8, !tbaa !66
  %.not.not23 = icmp ult i64 %9, %10
  br i1 %.not.not23, label %.lr.ph, label %._crit_edge, !llvm.loop !82

.lr.ph:                                           ; preds = %2, %8
  %.01319 = phi i64 [ %9, %8 ], [ 0, %2 ]
  call void @llvm.lifetime.start.p0(i64 8, ptr nonnull %3) #17
  store ptr null, ptr %3, align 8, !tbaa !72
  %11 = load ptr, ptr @the_repository, align 8, !tbaa !17
  %12 = load ptr, ptr %1, align 8, !tbaa !69
  %13 = getelementptr inbounds nuw %struct.object_id, ptr %12, i64 %.01319
  %14 = call ptr @lookup_commit_reference(ptr noundef %11, ptr noundef %13) #17
  %15 = call ptr @commit_list_insert(ptr noundef %14, ptr noundef nonnull %3) #17
  %16 = load ptr, ptr @the_repository, align 8, !tbaa !17
  %17 = load ptr, ptr %3, align 8, !tbaa !72
  %18 = call i32 @repo_is_descendant_of(ptr noundef %16, ptr noundef %5, ptr noundef %17) #17
  %19 = load ptr, ptr %3, align 8, !tbaa !72
  call void @free_commit_list(ptr noundef %19) #17
  %20 = icmp slt i32 %18, 0
  br i1 %20, label %21, label %23

21:                                               ; preds = %.lr.ph
  %22 = call i32 @common_exit(ptr noundef nonnull @.str.144, i32 noundef 958, i32 noundef 128) #17
  call void @exit(i32 noundef %22) #19
  unreachable

23:                                               ; preds = %.lr.ph
  %.not.not = icmp eq i32 %18, 0
  call void @llvm.lifetime.end.p0(i64 8, ptr nonnull %3) #17
  br i1 %.not.not, label %._crit_edge, label %8

._crit_edge:                                      ; preds = %23, %8, %2
  %.not.lcssa = phi i32 [ 1, %2 ], [ 1, %8 ], [ 0, %23 ]
  ret i32 %.not.lcssa
}